target datalayout = "e-m:e-p270:32:32-p271:32:32-p272:64:64-i64:64-i128:128-f80:128-n8:16:32:64-S128"
target triple = "x86_64-pc-linux-gnu"

%struct.sdshdr8 = type { i8, i8, i8, [0 x i8] }
%struct.sdshdr16 = type <{ i16, i16, i8, [0 x i8] }>
%struct.sdshdr32 = type <{ i32, i32, i8, [0 x i8] }>
%struct.sdshdr64 = type <{ i64, i64, i8, [0 x i8] }>
%struct.zsetopval = type { i32, [32 x i8], ptr, ptr, i32, i64, double }

; Function Attrs: inlinehint nounwind uwtable
define internal i64 @sdslen(ptr noundef %0) #8 {
  %2 = alloca i64, align 8
  %3 = alloca ptr, align 8
  %4 = alloca i8, align 1
  %5 = alloca i32, align 4
  store ptr %0, ptr %3, align 8, !tbaa !11
  call void @llvm.lifetime.start.p0(i64 1, ptr %4) #12
  %6 = load ptr, ptr %3, align 8, !tbaa !11
  %7 = getelementptr inbounds i8, ptr %6, i64 -1
  %8 = load i8, ptr %7, align 1, !tbaa !86
  store i8 %8, ptr %4, align 1, !tbaa !86
  %9 = load i8, ptr %4, align 1, !tbaa !86
  %10 = zext i8 %9 to i32
  %11 = and i32 %10, 7
  switch i32 %11, label %40 [
    i32 0, label %12
    i32 1, label %17
    i32 2, label %23
    i32 3, label %29
    i32 4, label %35
  ]

12:                                               ; preds = %1
  %13 = load i8, ptr %4, align 1, !tbaa !86
  %14 = zext i8 %13 to i32
  %15 = ashr i32 %14, 3
  %16 = sext i32 %15 to i64
  store i64 %16, ptr %2, align 8
  store i32 1, ptr %5, align 4
  br label %41

17:                                               ; preds = %1
  %18 = load ptr, ptr %3, align 8, !tbaa !11
  %19 = getelementptr inbounds i8, ptr %18, i64 -3
  %20 = getelementptr inbounds nuw %struct.sdshdr8, ptr %19, i32 0, i32 0
  %21 = load i8, ptr %20, align 1, !tbaa !86
  %22 = zext i8 %21 to i64
  store i64 %22, ptr %2, align 8
  store i32 1, ptr %5, align 4
  br label %41

23:                                               ; preds = %1
  %24 = load ptr, ptr %3, align 8, !tbaa !11
  %25 = getelementptr inbounds i8, ptr %24, i64 -5
  %26 = getelementptr inbounds nuw %struct.sdshdr16, ptr %25, i32 0, i32 0
  %27 = load i16, ptr %26, align 1, !tbaa !90
  %28 = zext i16 %27 to i64
  store i64 %28, ptr %2, align 8
  store i32 1, ptr %5, align 4
  br label %41

29:                                               ; preds = %1
  %30 = load ptr, ptr %3, align 8, !tbaa !11
  %31 = getelementptr inbounds i8, ptr %30, i64 -9
  %32 = getelementptr inbounds nuw %struct.sdshdr32, ptr %31, i32 0, i32 0
  %33 = load i32, ptr %32, align 1, !tbaa !5
  %34 = zext i32 %33 to i64
  store i64 %34, ptr %2, align 8
  store i32 1, ptr %5, align 4
  br label %41

35:                                               ; preds = %1
  %36 = load ptr, ptr %3, align 8, !tbaa !11
  %37 = getelementptr inbounds i8, ptr %36, i64 -17
  %38 = getelementptr inbounds nuw %struct.sdshdr64, ptr %37, i32 0, i32 0
  %39 = load i64, ptr %38, align 1, !tbaa !31
  store i64 %39, ptr %2, align 8
  store i32 1, ptr %5, align 4
  br label %41

40:                                               ; preds = %1
  store i64 0, ptr %2, align 8
  store i32 1, ptr %5, align 4
  br label %41

41:                                               ; preds = %40, %35, %29, %23, %17, %12
  call void @llvm.lifetime.end.p0(i64 1, ptr %4) #12
  %42 = load i64, ptr %2, align 8
  ret i64 %42
}

; Function Attrs: nounwind uwtable
define dso_local i32 @zuiBufferFromValue(ptr noundef %0) #0 {
  %2 = alloca ptr, align 8
  store ptr %0, ptr %2, align 8, !tbaa !45
  %3 = load ptr, ptr %2, align 8, !tbaa !45
  %4 = getelementptr inbounds nuw %struct.zsetopval, ptr %3, i32 0, i32 3
  %5 = load ptr, ptr %4, align 8, !tbaa !184
  %6 = icmp eq ptr %5, null
  br i1 %6, label %7, label %41

7:                                                ; preds = %1
  %8 = load ptr, ptr %2, align 8, !tbaa !45
  %9 = getelementptr inbounds nuw %struct.zsetopval, ptr %8, i32 0, i32 2
  %10 = load ptr, ptr %9, align 8, !tbaa !181
  %11 = icmp ne ptr %10, null
  br i1 %11, label %12, label %25

12:                                               ; preds = %7
  %13 = load ptr, ptr %2, align 8, !tbaa !45
  %14 = getelementptr inbounds nuw %struct.zsetopval, ptr %13, i32 0, i32 2
  %15 = load ptr, ptr %14, align 8, !tbaa !181
  %16 = call i64 @sdslen(ptr noundef %15)
  %17 = trunc i64 %16 to i32
  %18 = load ptr, ptr %2, align 8, !tbaa !45
  %19 = getelementptr inbounds nuw %struct.zsetopval, ptr %18, i32 0, i32 4
  store i32 %17, ptr %19, align 8, !tbaa !185
  %20 = load ptr, ptr %2, align 8, !tbaa !45
  %21 = getelementptr inbounds nuw %struct.zsetopval, ptr %20, i32 0, i32 2
  %22 = load ptr, ptr %21, align 8, !tbaa !181
  %23 = load ptr, ptr %2, align 8, !tbaa !45
  %24 = getelementptr inbounds nuw %struct.zsetopval, ptr %23, i32 0, i32 3
  store ptr %22, ptr %24, align 8, !tbaa !184
  br label %40

25:                                               ; preds = %7
  %26 = load ptr, ptr %2, align 8, !tbaa !45
  %27 = getelementptr inbounds nuw %struct.zsetopval, ptr %26, i32 0, i32 1
  %28 = getelementptr inbounds [32 x i8], ptr %27, i64 0, i64 0
  %29 = load ptr, ptr %2, align 8, !tbaa !45
  %30 = getelementptr inbounds nuw %struct.zsetopval, ptr %29, i32 0, i32 5
  %31 = load i64, ptr %30, align 8, !tbaa !182
  %32 = call i32 @ll2string(ptr noundef %28, i64 noundef 32, i64 noundef %31)
  %33 = load ptr, ptr %2, align 8, !tbaa !45
  %34 = getelementptr inbounds nuw %struct.zsetopval, ptr %33, i32 0, i32 4
  store i32 %32, ptr %34, align 8, !tbaa !185
  %35 = load ptr, ptr %2, align 8, !tbaa !45
  %36 = getelementptr inbounds nuw %struct.zsetopval, ptr %35, i32 0, i32 1
  %37 = getelementptr inbounds [32 x i8], ptr %36, i64 0, i64 0
  %38 = load ptr, ptr %2, align 8, !tbaa !45
  %39 = getelementptr inbounds nuw %struct.zsetopval, ptr %38, i32 0, i32 3
  store ptr %37, ptr %39, align 8, !tbaa !184
  br label %40

40:                                               ; preds = %25, %12
  br label %41

41:                                               ; preds = %40, %1
  ret i32 1
}