; Function Attrs: nounwind uwtable
define dso_local noundef i32 @zuiBufferFromValue(ptr noundef %0) local_unnamed_addr #0 {
  %2 = getelementptr inbounds nuw i8, ptr %0, i64 48
  %3 = load ptr, ptr %2, align 8, !tbaa !166
  %4 = icmp eq ptr %3, null
  br i1 %4, label %5, label %38

5:                                                ; preds = %1
  %6 = getelementptr inbounds nuw i8, ptr %0, i64 40
  %7 = load ptr, ptr %6, align 8, !tbaa !163
  %.not = icmp eq ptr %7, null
  br i1 %.not, label %32, label %8

8:                                                ; preds = %5
  %9 = getelementptr inbounds i8, ptr %7, i64 -1
  %10 = load i8, ptr %9, align 1, !tbaa !77
  %11 = zext i8 %10 to i32
  %12 = and i32 %11, 7
  switch i32 %12, label %sdslen.exit [
    i32 0, label %13
    i32 1, label %16
    i32 2, label %20
    i32 3, label %24
    i32 4, label %28
  ]

13:                                               ; preds = %8
  %14 = lshr i32 %11, 3
  %15 = zext nneg i32 %14 to i64
  br label %sdslen.exit

16:                                               ; preds = %8
  %17 = getelementptr inbounds i8, ptr %7, i64 -3
  %18 = load i8, ptr %17, align 1, !tbaa !77
  %19 = zext i8 %18 to i64
  br label %sdslen.exit

20:                                               ; preds = %8
  %21 = getelementptr inbounds i8, ptr %7, i64 -5
  %22 = load i16, ptr %21, align 1, !tbaa !79
  %23 = zext i16 %22 to i64
  br label %sdslen.exit

24:                                               ; preds = %8
  %25 = getelementptr inbounds i8, ptr %7, i64 -9
  %26 = load i32, ptr %25, align 1, !tbaa !78
  %27 = zext i32 %26 to i64
  br label %sdslen.exit

28:                                               ; preds = %8
  %29 = getelementptr inbounds i8, ptr %7, i64 -17
  %30 = load i64, ptr %29, align 1, !tbaa !26
  br label %sdslen.exit

sdslen.exit:                                      ; preds = %8, %13, %16, %20, %24, %28
  %.0.i = phi i64 [ %30, %28 ], [ %27, %24 ], [ %23, %20 ], [ %19, %16 ], [ %15, %13 ], [ 0, %8 ]
  %31 = trunc i64 %.0.i to i32
  br label %.sink.split

32:                                               ; preds = %5
  %33 = getelementptr inbounds nuw i8, ptr %0, i64 4
  %34 = getelementptr inbounds nuw i8, ptr %0, i64 64
  %35 = load i64, ptr %34, align 8, !tbaa !164
  %36 = tail call i32 @ll2string(ptr noundef nonnull %33, i64 noundef 32, i64 noundef %35) #18
  br label %.sink.split

.sink.split:                                      ; preds = %32, %sdslen.exit
  %.sink11 = phi i32 [ %31, %sdslen.exit ], [ %36, %32 ]
  %.sink = phi ptr [ %7, %sdslen.exit ], [ %33, %32 ]
  %37 = getelementptr inbounds nuw i8, ptr %0, i64 56
  store i32 %.sink11, ptr %37, align 8, !tbaa !167
  store ptr %.sink, ptr %2, align 8, !tbaa !166
  br label %38

38:                                               ; preds = %.sink.split, %1
  ret i32 1
}